target datalayout = "e-m:e-p270:32:32-p271:32:32-p272:64:64-i64:64-i128:128-f80:128-n8:16:32:64-S128"
target triple = "x86_64-pc-linux-gnu"

%struct.VVCLocalContext = type { i8, i8, i8, i8, i32, i32, [4 x i8], [3276800 x i8], [16384 x i16], [16384 x i16], [16384 x i16], [32768 x i8], [332800 x i8], [368640 x i8], [368640 x i8], [17424 x i32], %struct.anon, %struct.anon.0, ptr, [2 x [1024 x %struct.ReconstructedArea]], [2 x i32], %struct.NeighbourAvailable, i32, ptr, ptr, ptr, ptr }
%struct.anon = type { i32, i8, i32, i32, i32, [3 x i32], i32, i32, i32, i32, i32, i32 }
%struct.anon.0 = type { i32, i32, i32 }
%struct.ReconstructedArea = type { i32, i32, i32, i32 }
%struct.NeighbourAvailable = type { i32, i32, i32, i32, i32 }
%struct.VVCFrameContext = type { ptr, [17 x %struct.VVCFrame], ptr, ptr, %struct.VVCFrameParamSets, ptr, i32, i32, ptr, %struct.VVCDSPContext, %struct.VideoDSPContext, ptr, i64, ptr, ptr, ptr, ptr, %struct.anon.1 }
%struct.VVCFrame = type { ptr, ptr, ptr, ptr, ptr, ptr, i32, i32, i32, %struct.VVCWindow, i32, i32, ptr, ptr, i16, i8, ptr }
%struct.VVCWindow = type { i16, i16, i16, i16 }
%struct.VVCFrameParamSets = type { ptr, ptr, %struct.VVCPH, [8 x ptr], %struct.VVCLMCS, ptr }
%struct.VVCPH = type { ptr, ptr, i32, i32, i8, [3 x i16], i8, [3 x i16], %struct.PredWeightTable }
%struct.PredWeightTable = type { [2 x i8], [2 x i8], [2 x [2 x [15 x i8]]], [2 x [3 x [15 x i16]]], [2 x [3 x [15 x i16]]] }
%struct.VVCLMCS = type { i8, i8, %union.anon, %union.anon, [17 x i16], [16 x i16] }
%union.anon = type { [4096 x i16] }
%struct.VVCDSPContext = type { %struct.VVCInterDSPContext, %struct.VVCIntraDSPContext, %struct.VVCItxDSPContext, %struct.VVCLMCSDSPContext, %struct.VVCLFDSPContext, %struct.VVCSAODSPContext, %struct.VVCALFDSPContext }
%struct.VVCInterDSPContext = type { [2 x [7 x [2 x [2 x ptr]]]], [2 x [7 x [2 x [2 x ptr]]]], [2 x [7 x [2 x [2 x ptr]]]], [2 x [7 x ptr]], [2 x [7 x ptr]], [2 x [7 x ptr]], ptr, ptr, ptr, ptr, ptr, ptr, ptr, ptr, ptr, ptr, ptr, [2 x [2 x ptr]] }
%struct.VVCIntraDSPContext = type { ptr, ptr, ptr, ptr, ptr, ptr, ptr, ptr, ptr, ptr }
%struct.VVCItxDSPContext = type { ptr, ptr, [3 x [6 x ptr]], ptr, ptr }
%struct.VVCLMCSDSPContext = type { ptr }
%struct.VVCLFDSPContext = type { [2 x ptr], [2 x ptr], [2 x ptr] }
%struct.VVCSAODSPContext = type { [9 x ptr], [9 x ptr], [2 x ptr] }
%struct.VVCALFDSPContext = type { [2 x ptr], ptr, ptr, ptr }
%struct.VideoDSPContext = type { ptr, ptr }
%struct.anon.1 = type { ptr, ptr, ptr, ptr, [2 x ptr], [2 x ptr], [2 x ptr], [2 x ptr], [2 x ptr], [3 x ptr], ptr, ptr, [2 x ptr], ptr, ptr, [2 x ptr], ptr, ptr, ptr, [2 x ptr], ptr, [3 x ptr], ptr, [2 x ptr], [2 x ptr], [2 x ptr], [2 x [3 x ptr]], [2 x ptr], [2 x ptr], [3 x ptr], [3 x ptr], [3 x [2 x ptr]], [3 x [2 x ptr]], ptr, ptr, ptr, [3 x ptr], %struct.anon.2 }
%struct.anon.2 = type { i32, i32, i32, i32, i32, i32, i32, i32, i32, i32, i32, i32 }
%struct.VVCPPS = type { ptr, [3 x i8], [6 x [3 x i8]], i16, i16, [1000 x i16], [1000 x i16], i16, i16, i16, i16, i32, i16, i16, i16, i16, ptr, ptr, ptr, ptr, ptr, i16, i16, i16, i16, i16, [1000 x i16], [1000 x i16], [1000 x i16], [1000 x i16] }

; Function Attrs: nounwind uwtable
define internal i32 @coding_tree_qt(ptr noundef %0, i32 noundef %1, i32 noundef %2, i32 noundef %3, i32 noundef %4, i32 noundef %5, i32 noundef %6, i32 noundef %7, i32 noundef %8, i32 noundef %9, i32 noundef %10, i32 noundef %11, i32 noundef %12) #0 {
  %14 = alloca i32, align 4
  %15 = alloca ptr, align 8
  %16 = alloca i32, align 4
  %17 = alloca i32, align 4
  %18 = alloca i32, align 4
  %19 = alloca i32, align 4
  %20 = alloca i32, align 4
  %21 = alloca i32, align 4
  %22 = alloca i32, align 4
  %23 = alloca i32, align 4
  %24 = alloca i32, align 4
  %25 = alloca i32, align 4
  %26 = alloca i32, align 4
  %27 = alloca i32, align 4
  %28 = alloca ptr, align 8
  %29 = alloca i32, align 4
  %30 = alloca i32, align 4
  %31 = alloca i32, align 4
  %32 = alloca i32, align 4
  store ptr %0, ptr %15, align 8, !tbaa !4
  store i32 %1, ptr %16, align 4, !tbaa !9
  store i32 %2, ptr %17, align 4, !tbaa !9
  store i32 %3, ptr %18, align 4, !tbaa !9
  store i32 %4, ptr %19, align 4, !tbaa !9
  store i32 %5, ptr %20, align 4, !tbaa !9
  store i32 %6, ptr %21, align 4, !tbaa !9
  store i32 %7, ptr %22, align 4, !tbaa !9
  store i32 %8, ptr %23, align 4, !tbaa !9
  store i32 %9, ptr %24, align 4, !tbaa !9
  store i32 %10, ptr %25, align 4, !tbaa !9
  store i32 %11, ptr %26, align 4, !tbaa !9
  store i32 %12, ptr %27, align 4, !tbaa !9
  call void @llvm.lifetime.start.p0(i64 8, ptr %28) #7
  %33 = load ptr, ptr %15, align 8, !tbaa !4
  %34 = getelementptr inbounds nuw %struct.VVCLocalContext, ptr %33, i32 0, i32 24
  %35 = load ptr, ptr %34, align 8, !tbaa !11
  %36 = getelementptr inbounds nuw %struct.VVCFrameContext, ptr %35, i32 0, i32 4
  %37 = getelementptr inbounds nuw %struct.VVCFrameParamSets, ptr %36, i32 0, i32 1
  %38 = load ptr, ptr %37, align 8, !tbaa !59
  store ptr %38, ptr %28, align 8, !tbaa !60
  call void @llvm.lifetime.start.p0(i64 4, ptr %29) #7
  %39 = load i32, ptr %16, align 4, !tbaa !9
  %40 = load i32, ptr %18, align 4, !tbaa !9
  %41 = sdiv i32 %40, 2
  %42 = add nsw i32 %39, %41
  store i32 %42, ptr %29, align 4, !tbaa !9
  call void @llvm.lifetime.start.p0(i64 4, ptr %30) #7
  %43 = load i32, ptr %17, align 4, !tbaa !9
  %44 = load i32, ptr %19, align 4, !tbaa !9
  %45 = sdiv i32 %44, 2
  %46 = add nsw i32 %43, %45
  store i32 %46, ptr %30, align 4, !tbaa !9
  call void @llvm.lifetime.start.p0(i64 4, ptr %31) #7
  store i32 0, ptr %31, align 4, !tbaa !9
  br label %47

47:                                               ; preds = %13
  %48 = load ptr, ptr %15, align 8, !tbaa !4
  %49 = load i32, ptr %16, align 4, !tbaa !9
  %50 = load i32, ptr %17, align 4, !tbaa !9
  %51 = load i32, ptr %18, align 4, !tbaa !9
  %52 = sdiv i32 %51, 2
  %53 = load i32, ptr %19, align 4, !tbaa !9
  %54 = sdiv i32 %53, 2
  %55 = load i32, ptr %20, align 4, !tbaa !9
  %56 = load i32, ptr %21, align 4, !tbaa !9
  %57 = load i32, ptr %22, align 4, !tbaa !9
  %58 = add nsw i32 %57, 2
  %59 = load i32, ptr %23, align 4, !tbaa !9
  %60 = add nsw i32 %59, 1
  %61 = load i32, ptr %26, align 4, !tbaa !9
  %62 = load i32, ptr %27, align 4, !tbaa !9
  %63 = call i32 @hls_coding_tree(ptr noundef %48, i32 noundef %49, i32 noundef %50, i32 noundef %52, i32 noundef %54, i32 noundef %55, i32 noundef %56, i32 noundef %58, i32 noundef %60, i32 noundef 0, i32 noundef 0, i32 noundef 0, i32 noundef 5, i32 noundef %61, i32 noundef %62)
  store i32 %63, ptr %31, align 4, !tbaa !9
  %64 = load i32, ptr %31, align 4, !tbaa !9
  %65 = icmp slt i32 %64, 0
  br i1 %65, label %66, label %68

66:                                               ; preds = %47
  %67 = load i32, ptr %31, align 4, !tbaa !9
  store i32 %67, ptr %14, align 4
  store i32 1, ptr %32, align 4
  br label %174

68:                                               ; preds = %47
  br label %69

69:                                               ; preds = %68
  br label %70

70:                                               ; preds = %69
  %71 = load i32, ptr %29, align 4, !tbaa !9
  %72 = load ptr, ptr %28, align 8, !tbaa !60
  %73 = getelementptr inbounds nuw %struct.VVCPPS, ptr %72, i32 0, i32 3
  %74 = load i16, ptr %73, align 2, !tbaa !81
  %75 = zext i16 %74 to i32
  %76 = icmp slt i32 %71, %75
  br i1 %76, label %77, label %102

77:                                               ; preds = %70
  br label %78

78:                                               ; preds = %77
  %79 = load ptr, ptr %15, align 8, !tbaa !4
  %80 = load i32, ptr %29, align 4, !tbaa !9
  %81 = load i32, ptr %17, align 4, !tbaa !9
  %82 = load i32, ptr %18, align 4, !tbaa !9
  %83 = sdiv i32 %82, 2
  %84 = load i32, ptr %19, align 4, !tbaa !9
  %85 = sdiv i32 %84, 2
  %86 = load i32, ptr %20, align 4, !tbaa !9
  %87 = load i32, ptr %21, align 4, !tbaa !9
  %88 = load i32, ptr %22, align 4, !tbaa !9
  %89 = add nsw i32 %88, 2
  %90 = load i32, ptr %23, align 4, !tbaa !9
  %91 = add nsw i32 %90, 1
  %92 = load i32, ptr %26, align 4, !tbaa !9
  %93 = load i32, ptr %27, align 4, !tbaa !9
  %94 = call i32 @hls_coding_tree(ptr noundef %79, i32 noundef %80, i32 noundef %81, i32 noundef %83, i32 noundef %85, i32 noundef %86, i32 noundef %87, i32 noundef %89, i32 noundef %91, i32 noundef 0, i32 noundef 0, i32 noundef 1, i32 noundef 5, i32 noundef %92, i32 noundef %93)
  store i32 %94, ptr %31, align 4, !tbaa !9
  %95 = load i32, ptr %31, align 4, !tbaa !9
  %96 = icmp slt i32 %95, 0
  br i1 %96, label %97, label %99

97:                                               ; preds = %78
  %98 = load i32, ptr %31, align 4, !tbaa !9
  store i32 %98, ptr %14, align 4
  store i32 1, ptr %32, align 4
  br label %174

99:                                               ; preds = %78
  br label %100

100:                                              ; preds = %99
  br label %101

101:                                              ; preds = %100
  br label %102

102:                                              ; preds = %101, %70
  %103 = load i32, ptr %30, align 4, !tbaa !9
  %104 = load ptr, ptr %28, align 8, !tbaa !60
  %105 = getelementptr inbounds nuw %struct.VVCPPS, ptr %104, i32 0, i32 4
  %106 = load i16, ptr %105, align 8, !tbaa !83
  %107 = zext i16 %106 to i32
  %108 = icmp slt i32 %103, %107
  br i1 %108, label %109, label %134

109:                                              ; preds = %102
  br label %110

110:                                              ; preds = %109
  %111 = load ptr, ptr %15, align 8, !tbaa !4
  %112 = load i32, ptr %16, align 4, !tbaa !9
  %113 = load i32, ptr %30, align 4, !tbaa !9
  %114 = load i32, ptr %18, align 4, !tbaa !9
  %115 = sdiv i32 %114, 2
  %116 = load i32, ptr %19, align 4, !tbaa !9
  %117 = sdiv i32 %116, 2
  %118 = load i32, ptr %20, align 4, !tbaa !9
  %119 = load i32, ptr %21, align 4, !tbaa !9
  %120 = load i32, ptr %22, align 4, !tbaa !9
  %121 = add nsw i32 %120, 2
  %122 = load i32, ptr %23, align 4, !tbaa !9
  %123 = add nsw i32 %122, 1
  %124 = load i32, ptr %26, align 4, !tbaa !9
  %125 = load i32, ptr %27, align 4, !tbaa !9
  %126 = call i32 @hls_coding_tree(ptr noundef %111, i32 noundef %112, i32 noundef %113, i32 noundef %115, i32 noundef %117, i32 noundef %118, i32 noundef %119, i32 noundef %121, i32 noundef %123, i32 noundef 0, i32 noundef 0, i32 noundef 2, i32 noundef 5, i32 noundef %124, i32 noundef %125)
  store i32 %126, ptr %31, align 4, !tbaa !9
  %127 = load i32, ptr %31, align 4, !tbaa !9
  %128 = icmp slt i32 %127, 0
  br i1 %128, label %129, label %131

129:                                              ; preds = %110
  %130 = load i32, ptr %31, align 4, !tbaa !9
  store i32 %130, ptr %14, align 4
  store i32 1, ptr %32, align 4
  br label %174

131:                                              ; preds = %110
  br label %132

132:                                              ; preds = %131
  br label %133

133:                                              ; preds = %132
  br label %134

134:                                              ; preds = %133, %102
  %135 = load i32, ptr %29, align 4, !tbaa !9
  %136 = load ptr, ptr %28, align 8, !tbaa !60
  %137 = getelementptr inbounds nuw %struct.VVCPPS, ptr %136, i32 0, i32 3
  %138 = load i16, ptr %137, align 2, !tbaa !81
  %139 = zext i16 %138 to i32
  %140 = icmp slt i32 %135, %139
  br i1 %140, label %141, label %173

141:                                              ; preds = %134
  %142 = load i32, ptr %30, align 4, !tbaa !9
  %143 = load ptr, ptr %28, align 8, !tbaa !60
  %144 = getelementptr inbounds nuw %struct.VVCPPS, ptr %143, i32 0, i32 4
  %145 = load i16, ptr %144, align 8, !tbaa !83
  %146 = zext i16 %145 to i32
  %147 = icmp slt i32 %142, %146
  br i1 %147, label %148, label %173

148:                                              ; preds = %141
  br label %149

149:                                              ; preds = %148
  %150 = load ptr, ptr %15, align 8, !tbaa !4
  %151 = load i32, ptr %29, align 4, !tbaa !9
  %152 = load i32, ptr %30, align 4, !tbaa !9
  %153 = load i32, ptr %18, align 4, !tbaa !9
  %154 = sdiv i32 %153, 2
  %155 = load i32, ptr %19, align 4, !tbaa !9
  %156 = sdiv i32 %155, 2
  %157 = load i32, ptr %20, align 4, !tbaa !9
  %158 = load i32, ptr %21, align 4, !tbaa !9
  %159 = load i32, ptr %22, align 4, !tbaa !9
  %160 = add nsw i32 %159, 2
  %161 = load i32, ptr %23, align 4, !tbaa !9
  %162 = add nsw i32 %161, 1
  %163 = load i32, ptr %26, align 4, !tbaa !9
  %164 = load i32, ptr %27, align 4, !tbaa !9
  %165 = call i32 @hls_coding_tree(ptr noundef %150, i32 noundef %151, i32 noundef %152, i32 noundef %154, i32 noundef %156, i32 noundef %157, i32 noundef %158, i32 noundef %160, i32 noundef %162, i32 noundef 0, i32 noundef 0, i32 noundef 3, i32 noundef 5, i32 noundef %163, i32 noundef %164)
  store i32 %165, ptr %31, align 4, !tbaa !9
  %166 = load i32, ptr %31, align 4, !tbaa !9
  %167 = icmp slt i32 %166, 0
  br i1 %167, label %168, label %170

168:                                              ; preds = %149
  %169 = load i32, ptr %31, align 4, !tbaa !9
  store i32 %169, ptr %14, align 4
  store i32 1, ptr %32, align 4
  br label %174

170:                                              ; preds = %149
  br label %171

171:                                              ; preds = %170
  br label %172

172:                                              ; preds = %171
  br label %173

173:                                              ; preds = %172, %141, %134
  store i32 0, ptr %14, align 4
  store i32 1, ptr %32, align 4
  br label %174

174:                                              ; preds = %173, %168, %129, %97, %66
  call void @llvm.lifetime.end.p0(i64 4, ptr %31) #7
  call void @llvm.lifetime.end.p0(i64 4, ptr %30) #7
  call void @llvm.lifetime.end.p0(i64 4, ptr %29) #7
  call void @llvm.lifetime.end.p0(i64 8, ptr %28) #7
  %175 = load i32, ptr %14, align 4
  ret i32 %175
}