; Function Attrs: nounwind uwtable
define internal range(i32 -2147483648, 1) i32 @coding_tree_qt(ptr noundef %0, i32 noundef %1, i32 noundef %2, i32 noundef %3, i32 noundef %4, i32 noundef %5, i32 noundef %6, i32 noundef %7, i32 noundef %8, i32 %9, i32 %10, i32 noundef %11, i32 noundef %12) #0 {
  %14 = getelementptr inbounds nuw i8, ptr %0, i64 4580552
  %15 = load ptr, ptr %14, align 8, !tbaa !4
  %16 = getelementptr inbounds nuw i8, ptr %15, i64 1936
  %17 = load ptr, ptr %16, align 8, !tbaa !54
  %18 = sdiv i32 %3, 2
  %19 = add nsw i32 %18, %1
  %20 = sdiv i32 %4, 2
  %21 = add nsw i32 %20, %2
  %22 = add nsw i32 %7, 2
  %23 = add nsw i32 %8, 1
  %24 = tail call fastcc i32 @hls_coding_tree(ptr noundef %0, i32 noundef %1, i32 noundef %2, i32 noundef %18, i32 noundef %20, i32 noundef %5, i32 noundef %6, i32 noundef %22, i32 noundef %23, i32 noundef 0, i32 noundef 0, i32 noundef 0, i32 noundef 5, i32 noundef %11, i32 noundef %12)
  %25 = icmp slt i32 %24, 0
  br i1 %25, label %54, label %26

26:                                               ; preds = %13
  %27 = getelementptr inbounds nuw i8, ptr %17, i64 30
  %28 = load i16, ptr %27, align 2, !tbaa !171
  %29 = zext i16 %28 to i32
  %30 = icmp slt i32 %19, %29
  br i1 %30, label %31, label %34

31:                                               ; preds = %26
  %32 = tail call fastcc i32 @hls_coding_tree(ptr noundef nonnull %0, i32 noundef %19, i32 noundef %2, i32 noundef %18, i32 noundef %20, i32 noundef %5, i32 noundef %6, i32 noundef %22, i32 noundef %23, i32 noundef 0, i32 noundef 0, i32 noundef 1, i32 noundef 5, i32 noundef %11, i32 noundef %12)
  %33 = icmp slt i32 %32, 0
  br i1 %33, label %54, label %34

34:                                               ; preds = %31, %26
  %35 = getelementptr inbounds nuw i8, ptr %17, i64 32
  %36 = load i16, ptr %35, align 8, !tbaa !173
  %37 = zext i16 %36 to i32
  %38 = icmp slt i32 %21, %37
  br i1 %38, label %39, label %42

39:                                               ; preds = %34
  %40 = tail call fastcc i32 @hls_coding_tree(ptr noundef nonnull %0, i32 noundef %1, i32 noundef %21, i32 noundef %18, i32 noundef %20, i32 noundef %5, i32 noundef %6, i32 noundef %22, i32 noundef %23, i32 noundef 0, i32 noundef 0, i32 noundef 2, i32 noundef 5, i32 noundef %11, i32 noundef %12)
  %41 = icmp slt i32 %40, 0
  br i1 %41, label %54, label %42

42:                                               ; preds = %39, %34
  %43 = load i16, ptr %27, align 2, !tbaa !171
  %44 = zext i16 %43 to i32
  %45 = icmp slt i32 %19, %44
  br i1 %45, label %46, label %53

46:                                               ; preds = %42
  %47 = load i16, ptr %35, align 8, !tbaa !173
  %48 = zext i16 %47 to i32
  %49 = icmp slt i32 %21, %48
  br i1 %49, label %50, label %53

50:                                               ; preds = %46
  %51 = tail call fastcc i32 @hls_coding_tree(ptr noundef nonnull %0, i32 noundef %19, i32 noundef %21, i32 noundef %18, i32 noundef %20, i32 noundef %5, i32 noundef %6, i32 noundef %22, i32 noundef %23, i32 noundef 0, i32 noundef 0, i32 noundef 3, i32 noundef 5, i32 noundef %11, i32 noundef %12)
  %52 = icmp slt i32 %51, 0
  br i1 %52, label %54, label %53

53:                                               ; preds = %50, %46, %42
  br label %54

54:                                               ; preds = %50, %39, %31, %13, %53
  %.0 = phi i32 [ 0, %53 ], [ %24, %13 ], [ %32, %31 ], [ %40, %39 ], [ %51, %50 ]
  ret i32 %.0
}